; Function Attrs: mustprogress uwtable
define dso_local noundef zeroext i1 @_ZN23cmGlobalCommonGenerator25IsExcludedFromAllInConfigERKNS_15DirectoryTarget6TargetERKNSt7__cxx1112basic_stringIcSt11char_traitsIcESaIcEEE(ptr noundef nonnull align 8 dereferenceable(1880) %0, ptr nocapture noundef nonnull readonly align 8 dereferenceable(32) %1, ptr noundef nonnull align 8 dereferenceable(32) %2) local_unnamed_addr #3 align 2 {
  %4 = load ptr, ptr %0, align 8
  %5 = getelementptr inbounds i8, ptr %4, i64 320
  %6 = load ptr, ptr %5, align 8
  %7 = tail call noundef zeroext i1 %6(ptr noundef nonnull align 8 dereferenceable(1778) %0)
  %8 = getelementptr inbounds i8, ptr %1, i64 8
  %9 = load ptr, ptr %8, align 8
  %10 = getelementptr inbounds i8, ptr %1, i64 16
  %11 = load ptr, ptr %10, align 8
  br i1 %7, label %12, label %16

12:                                               ; preds = %3
  %13 = tail call ptr @_ZSt9__find_ifIN9__gnu_cxx17__normal_iteratorIPKNSt7__cxx1112basic_stringIcSt11char_traitsIcESaIcEEESt6vectorIS7_SaIS7_EEEENS0_5__ops16_Iter_equals_valIS8_EEET_SH_SH_T0_St26random_access_iterator_tag(ptr %9, ptr %11, ptr nonnull %2)
  %14 = load ptr, ptr %10, align 8
  %15 = icmp ne ptr %13, %14
  br label %18

16:                                               ; preds = %3
  %17 = icmp ne ptr %9, %11
  br label %18

18:                                               ; preds = %16, %12
  %.0 = phi i1 [ %15, %12 ], [ %17, %16 ]
  ret i1 %.0
}